target datalayout = "e-m:e-p270:32:32-p271:32:32-p272:64:64-i64:64-i128:128-f80:128-n8:16:32:64-S128"
target triple = "x86_64-pc-linux-gnu"

%"class.nanogui::VScrollPanel" = type <{ %"class.nanogui::Widget.base", i32, float, i8, [3 x i8] }>
%"class.nanogui::Widget.base" = type <{ %"class.nanogui::Object.base", [4 x i8], ptr, %"class.nanogui::ref", %"class.nanogui::ref.0", %"struct.nanogui::Array", %"struct.nanogui::Array", %"struct.nanogui::Array", %"class.std::vector", i8, i8, i8, i8, [4 x i8], %"class.std::__cxx11::basic_string", i32, float, i32 }>
%"class.nanogui::Object.base" = type <{ ptr, %"struct.std::atomic" }>
%"struct.std::atomic" = type { %"struct.std::__atomic_base" }
%"struct.std::__atomic_base" = type { i32 }
%"class.nanogui::ref" = type { ptr }
%"class.nanogui::ref.0" = type { ptr }
%"struct.nanogui::Array" = type { [2 x i32] }
%"class.std::vector" = type { %"struct.std::_Vector_base" }
%"struct.std::_Vector_base" = type { %"struct.std::_Vector_base<nanogui::Widget *, std::allocator<nanogui::Widget *>>::_Vector_impl" }
%"struct.std::_Vector_base<nanogui::Widget *, std::allocator<nanogui::Widget *>>::_Vector_impl" = type { %"struct.std::_Vector_base<nanogui::Widget *, std::allocator<nanogui::Widget *>>::_Vector_impl_data" }
%"struct.std::_Vector_base<nanogui::Widget *, std::allocator<nanogui::Widget *>>::_Vector_impl_data" = type { ptr, ptr, ptr }
%"class.std::__cxx11::basic_string" = type { %"struct.std::__cxx11::basic_string<char>::_Alloc_hider", i64, %union.anon }
%"struct.std::__cxx11::basic_string<char>::_Alloc_hider" = type { ptr }
%union.anon = type { i64, [8 x i8] }
%"class.nanogui::Widget" = type <{ %"class.nanogui::Object.base", [4 x i8], ptr, %"class.nanogui::ref", %"class.nanogui::ref.0", %"struct.nanogui::Array", %"struct.nanogui::Array", %"struct.nanogui::Array", %"class.std::vector", i8, i8, i8, i8, [4 x i8], %"class.std::__cxx11::basic_string", i32, float, i32, [4 x i8] }>
%"class.__gnu_cxx::__normal_iterator" = type { ptr }

@.str = private unnamed_addr constant [36 x i8] c"VScrollPanel should have one child.\00", align 1
@_ZTISt13runtime_error = external constant ptr

; Function Attrs: mustprogress nounwind uwtable
define linkonce_odr hidden noundef nonnull align 8 dereferenceable(8) ptr @_ZNK9__gnu_cxx17__normal_iteratorIPKPN7nanogui6WidgetESt6vectorIS3_SaIS3_EEE4baseEv(ptr noundef nonnull align 8 dereferenceable(8) %0) #2 comdat align 2 {
  %2 = alloca ptr, align 8
  store ptr %0, ptr %2, align 8
  %3 = load ptr, ptr %2, align 8
  %4 = getelementptr inbounds %"class.__gnu_cxx::__normal_iterator", ptr %3, i32 0, i32 0
  ret ptr %4
}

; Function Attrs: mustprogress nounwind uwtable
define linkonce_odr hidden void @_ZN9__gnu_cxx17__normal_iteratorIPKPN7nanogui6WidgetESt6vectorIS3_SaIS3_EEEC2ERKS5_(ptr noundef nonnull align 8 dereferenceable(8) %0, ptr noundef nonnull align 8 dereferenceable(8) %1) unnamed_addr #2 comdat align 2 {
  %3 = alloca ptr, align 8
  %4 = alloca ptr, align 8
  store ptr %0, ptr %3, align 8
  store ptr %1, ptr %4, align 8
  %5 = load ptr, ptr %3, align 8
  %6 = getelementptr inbounds %"class.__gnu_cxx::__normal_iterator", ptr %5, i32 0, i32 0
  %7 = load ptr, ptr %4, align 8
  %8 = load ptr, ptr %7, align 8
  store ptr %8, ptr %6, align 8
  ret void
}

; Function Attrs: mustprogress nounwind uwtable
define linkonce_odr hidden noundef zeroext i1 @_ZN9__gnu_cxxeqIPKPN7nanogui6WidgetESt6vectorIS3_SaIS3_EEEEbRKNS_17__normal_iteratorIT_T0_EESE_(ptr noundef nonnull align 8 dereferenceable(8) %0, ptr noundef nonnull align 8 dereferenceable(8) %1) #2 comdat {
  %3 = alloca ptr, align 8
  %4 = alloca ptr, align 8
  store ptr %0, ptr %3, align 8
  store ptr %1, ptr %4, align 8
  %5 = load ptr, ptr %3, align 8
  %6 = call noundef nonnull align 8 dereferenceable(8) ptr @_ZNK9__gnu_cxx17__normal_iteratorIPKPN7nanogui6WidgetESt6vectorIS3_SaIS3_EEE4baseEv(ptr noundef nonnull align 8 dereferenceable(8) %5) #8
  %7 = load ptr, ptr %6, align 8
  %8 = load ptr, ptr %4, align 8
  %9 = call noundef nonnull align 8 dereferenceable(8) ptr @_ZNK9__gnu_cxx17__normal_iteratorIPKPN7nanogui6WidgetESt6vectorIS3_SaIS3_EEE4baseEv(ptr noundef nonnull align 8 dereferenceable(8) %8) #8
  %10 = load ptr, ptr %9, align 8
  %11 = icmp eq ptr %7, %10
  ret i1 %11
}

; Function Attrs: mustprogress nounwind uwtable
define linkonce_odr hidden ptr @_ZNKSt6vectorIPN7nanogui6WidgetESaIS2_EE3endEv(ptr noundef nonnull align 8 dereferenceable(24) %0) #2 comdat align 2 {
  %2 = alloca %"class.__gnu_cxx::__normal_iterator", align 8
  %3 = alloca ptr, align 8
  store ptr %0, ptr %3, align 8
  %4 = load ptr, ptr %3, align 8
  %5 = getelementptr inbounds %"struct.std::_Vector_base", ptr %4, i32 0, i32 0
  %6 = getelementptr inbounds %"struct.std::_Vector_base<nanogui::Widget *, std::allocator<nanogui::Widget *>>::_Vector_impl_data", ptr %5, i32 0, i32 1
  call void @_ZN9__gnu_cxx17__normal_iteratorIPKPN7nanogui6WidgetESt6vectorIS3_SaIS3_EEEC2ERKS5_(ptr noundef nonnull align 8 dereferenceable(8) %2, ptr noundef nonnull align 8 dereferenceable(8) %6) #8
  %7 = getelementptr inbounds %"class.__gnu_cxx::__normal_iterator", ptr %2, i32 0, i32 0
  %8 = load ptr, ptr %7, align 8
  ret ptr %8
}

; Function Attrs: mustprogress nounwind uwtable
define linkonce_odr hidden ptr @_ZNKSt6vectorIPN7nanogui6WidgetESaIS2_EE5beginEv(ptr noundef nonnull align 8 dereferenceable(24) %0) #2 comdat align 2 {
  %2 = alloca %"class.__gnu_cxx::__normal_iterator", align 8
  %3 = alloca ptr, align 8
  store ptr %0, ptr %3, align 8
  %4 = load ptr, ptr %3, align 8
  %5 = getelementptr inbounds %"struct.std::_Vector_base", ptr %4, i32 0, i32 0
  %6 = getelementptr inbounds %"struct.std::_Vector_base<nanogui::Widget *, std::allocator<nanogui::Widget *>>::_Vector_impl_data", ptr %5, i32 0, i32 0
  call void @_ZN9__gnu_cxx17__normal_iteratorIPKPN7nanogui6WidgetESt6vectorIS3_SaIS3_EEEC2ERKS5_(ptr noundef nonnull align 8 dereferenceable(8) %2, ptr noundef nonnull align 8 dereferenceable(8) %6) #8
  %7 = getelementptr inbounds %"class.__gnu_cxx::__normal_iterator", ptr %2, i32 0, i32 0
  %8 = load ptr, ptr %7, align 8
  ret ptr %8
}

; Function Attrs: mustprogress nounwind uwtable
define linkonce_odr hidden void @_ZN7nanogui5ArrayIiLm2EEC2Ei(ptr noundef nonnull align 4 dereferenceable(8) %0, i32 noundef %1) unnamed_addr #2 comdat align 2 {
  %3 = alloca ptr, align 8
  %4 = alloca i32, align 4
  %5 = alloca i64, align 8
  store ptr %0, ptr %3, align 8
  store i32 %1, ptr %4, align 4
  %6 = load ptr, ptr %3, align 8
  store i64 0, ptr %5, align 8
  br label %7

7:                                                ; preds = %15, %2
  %8 = load i64, ptr %5, align 8
  %9 = icmp ult i64 %8, 2
  br i1 %9, label %10, label %18

10:                                               ; preds = %7
  %11 = load i32, ptr %4, align 4
  %12 = getelementptr inbounds %"struct.nanogui::Array", ptr %6, i32 0, i32 0
  %13 = load i64, ptr %5, align 8
  %14 = getelementptr inbounds [2 x i32], ptr %12, i64 0, i64 %13
  store i32 %11, ptr %14, align 4
  br label %15

15:                                               ; preds = %10
  %16 = load i64, ptr %5, align 8
  %17 = add i64 %16, 1
  store i64 %17, ptr %5, align 8
  br label %7, !llvm.loop !5

18:                                               ; preds = %7
  ret void
}

; Function Attrs: mustprogress nounwind uwtable
define linkonce_odr hidden void @_ZN7nanogui6Widget8set_sizeERKNS_5ArrayIiLm2EEE(ptr noundef nonnull align 8 dereferenceable(140) %0, ptr noundef nonnull align 4 dereferenceable(8) %1) #2 comdat align 2 {
  %3 = alloca ptr, align 8
  %4 = alloca ptr, align 8
  store ptr %0, ptr %3, align 8
  store ptr %1, ptr %4, align 8
  %5 = load ptr, ptr %3, align 8
  %6 = load ptr, ptr %4, align 8
  %7 = getelementptr inbounds %"class.nanogui::Widget", ptr %5, i32 0, i32 6
  call void @llvm.memcpy.p0.p0.i64(ptr align 8 %7, ptr align 4 %6, i64 8, i1 false)
  ret void
}

; Function Attrs: mustprogress nounwind uwtable
define linkonce_odr hidden noundef nonnull align 4 dereferenceable(4) ptr @_ZN7nanogui5ArrayIiLm2EE1xILm2ETnNSt9enable_ifIXgeT_Li1EEiE4typeELi0EEERiv(ptr noundef nonnull align 4 dereferenceable(8) %0) #2 comdat align 2 {
  %2 = alloca ptr, align 8
  store ptr %0, ptr %2, align 8
  %3 = load ptr, ptr %2, align 8
  %4 = getelementptr inbounds %"struct.nanogui::Array", ptr %3, i32 0, i32 0
  %5 = getelementptr inbounds [2 x i32], ptr %4, i64 0, i64 0
  ret ptr %5
}

; Function Attrs: mustprogress nounwind uwtable
define linkonce_odr hidden void @_ZN7nanogui6Widget12set_positionERKNS_5ArrayIiLm2EEE(ptr noundef nonnull align 8 dereferenceable(140) %0, ptr noundef nonnull align 4 dereferenceable(8) %1) #2 comdat align 2 {
  %3 = alloca ptr, align 8
  %4 = alloca ptr, align 8
  store ptr %0, ptr %3, align 8
  store ptr %1, ptr %4, align 8
  %5 = load ptr, ptr %3, align 8
  %6 = load ptr, ptr %4, align 8
  %7 = getelementptr inbounds %"class.nanogui::Widget", ptr %5, i32 0, i32 5
  call void @llvm.memcpy.p0.p0.i64(ptr align 8 %7, ptr align 4 %6, i64 8, i1 false)
  ret void
}

; Function Attrs: mustprogress nounwind uwtable
define linkonce_odr hidden void @_ZN7nanogui5ArrayIiLm2EEC2ILm2ETnNSt9enable_ifIXeqT_Li2EEiE4typeELi0EEEii(ptr noundef nonnull align 4 dereferenceable(8) %0, i32 noundef %1, i32 noundef %2) unnamed_addr #2 comdat align 2 {
  %4 = alloca ptr, align 8
  %5 = alloca i32, align 4
  %6 = alloca i32, align 4
  store ptr %0, ptr %4, align 8
  store i32 %1, ptr %5, align 4
  store i32 %2, ptr %6, align 4
  %7 = load ptr, ptr %4, align 8
  %8 = load i32, ptr %5, align 4
  %9 = getelementptr inbounds %"struct.nanogui::Array", ptr %7, i32 0, i32 0
  %10 = getelementptr inbounds [2 x i32], ptr %9, i64 0, i64 0
  store i32 %8, ptr %10, align 4
  %11 = load i32, ptr %6, align 4
  %12 = getelementptr inbounds %"struct.nanogui::Array", ptr %7, i32 0, i32 0
  %13 = getelementptr inbounds [2 x i32], ptr %12, i64 0, i64 1
  store i32 %11, ptr %13, align 4
  ret void
}

; Function Attrs: mustprogress nounwind uwtable
define linkonce_odr hidden noundef nonnull align 4 dereferenceable(4) ptr @_ZN7nanogui5ArrayIiLm2EE1yILm2ETnNSt9enable_ifIXgeT_Li2EEiE4typeELi0EEERiv(ptr noundef nonnull align 4 dereferenceable(8) %0) #2 comdat align 2 {
  %2 = alloca ptr, align 8
  store ptr %0, ptr %2, align 8
  %3 = load ptr, ptr %2, align 8
  %4 = getelementptr inbounds %"struct.nanogui::Array", ptr %3, i32 0, i32 0
  %5 = getelementptr inbounds [2 x i32], ptr %4, i64 0, i64 1
  ret ptr %5
}

; Function Attrs: mustprogress nounwind uwtable
define linkonce_odr hidden noundef nonnull align 8 dereferenceable(8) ptr @_ZNSt6vectorIPN7nanogui6WidgetESaIS2_EEixEm(ptr noundef nonnull align 8 dereferenceable(24) %0, i64 noundef %1) #2 comdat align 2 {
  %3 = alloca ptr, align 8
  %4 = alloca i64, align 8
  store ptr %0, ptr %3, align 8
  store i64 %1, ptr %4, align 8
  %5 = load ptr, ptr %3, align 8
  %6 = getelementptr inbounds %"struct.std::_Vector_base", ptr %5, i32 0, i32 0
  %7 = getelementptr inbounds %"struct.std::_Vector_base<nanogui::Widget *, std::allocator<nanogui::Widget *>>::_Vector_impl_data", ptr %6, i32 0, i32 0
  %8 = load ptr, ptr %7, align 8
  %9 = load i64, ptr %4, align 8
  %10 = getelementptr inbounds ptr, ptr %8, i64 %9
  ret ptr %10
}

; Function Attrs: mustprogress nounwind uwtable
define linkonce_odr hidden noundef i64 @_ZNKSt6vectorIPN7nanogui6WidgetESaIS2_EE4sizeEv(ptr noundef nonnull align 8 dereferenceable(24) %0) #2 comdat align 2 {
  %2 = alloca ptr, align 8
  store ptr %0, ptr %2, align 8
  %3 = load ptr, ptr %2, align 8
  %4 = getelementptr inbounds %"struct.std::_Vector_base", ptr %3, i32 0, i32 0
  %5 = getelementptr inbounds %"struct.std::_Vector_base<nanogui::Widget *, std::allocator<nanogui::Widget *>>::_Vector_impl_data", ptr %4, i32 0, i32 1
  %6 = load ptr, ptr %5, align 8
  %7 = getelementptr inbounds %"struct.std::_Vector_base", ptr %3, i32 0, i32 0
  %8 = getelementptr inbounds %"struct.std::_Vector_base<nanogui::Widget *, std::allocator<nanogui::Widget *>>::_Vector_impl_data", ptr %7, i32 0, i32 0
  %9 = load ptr, ptr %8, align 8
  %10 = ptrtoint ptr %6 to i64
  %11 = ptrtoint ptr %9 to i64
  %12 = sub i64 %10, %11
  %13 = sdiv exact i64 %12, 8
  ret i64 %13
}

; Function Attrs: mustprogress nounwind uwtable
define linkonce_odr hidden noundef zeroext i1 @_ZNKSt6vectorIPN7nanogui6WidgetESaIS2_EE5emptyEv(ptr noundef nonnull align 8 dereferenceable(24) %0) #2 comdat align 2 {
  %2 = alloca ptr, align 8
  %3 = alloca %"class.__gnu_cxx::__normal_iterator", align 8
  %4 = alloca %"class.__gnu_cxx::__normal_iterator", align 8
  store ptr %0, ptr %2, align 8
  %5 = load ptr, ptr %2, align 8
  %6 = call ptr @_ZNKSt6vectorIPN7nanogui6WidgetESaIS2_EE5beginEv(ptr noundef nonnull align 8 dereferenceable(24) %5) #8
  %7 = getelementptr inbounds %"class.__gnu_cxx::__normal_iterator", ptr %3, i32 0, i32 0
  store ptr %6, ptr %7, align 8
  %8 = call ptr @_ZNKSt6vectorIPN7nanogui6WidgetESaIS2_EE3endEv(ptr noundef nonnull align 8 dereferenceable(24) %5) #8
  %9 = getelementptr inbounds %"class.__gnu_cxx::__normal_iterator", ptr %4, i32 0, i32 0
  store ptr %8, ptr %9, align 8
  %10 = call noundef zeroext i1 @_ZN9__gnu_cxxeqIPKPN7nanogui6WidgetESt6vectorIS3_SaIS3_EEEEbRKNS_17__normal_iteratorIT_T0_EESE_(ptr noundef nonnull align 8 dereferenceable(8) %3, ptr noundef nonnull align 8 dereferenceable(8) %4) #8
  ret i1 %10
}

; Function Attrs: mustprogress uwtable
define hidden void @_ZN7nanogui12VScrollPanel14perform_layoutEP10NVGcontext(ptr noundef nonnull align 8 dereferenceable(149) %0, ptr noundef %1) unnamed_addr #0 align 2 personality ptr @__gxx_personality_v0 {
  %3 = alloca ptr, align 8
  %4 = alloca ptr, align 8
  %5 = alloca ptr, align 8
  %6 = alloca i32, align 4
  %7 = alloca ptr, align 8
  %8 = alloca %"struct.nanogui::Array", align 4
  %9 = alloca %"struct.nanogui::Array", align 4
  %10 = alloca %"struct.nanogui::Array", align 4
  %11 = alloca %"struct.nanogui::Array", align 4
  store ptr %0, ptr %3, align 8
  store ptr %1, ptr %4, align 8
  %12 = load ptr, ptr %3, align 8
  %13 = load ptr, ptr %4, align 8
  call void @_ZN7nanogui6Widget14perform_layoutEP10NVGcontext(ptr noundef nonnull align 8 dereferenceable(140) %12, ptr noundef %13)
  %14 = getelementptr inbounds %"class.nanogui::Widget", ptr %12, i32 0, i32 8
  %15 = call noundef zeroext i1 @_ZNKSt6vectorIPN7nanogui6WidgetESaIS2_EE5emptyEv(ptr noundef nonnull align 8 dereferenceable(24) %14) #8
  br i1 %15, label %16, label %17

16:                                               ; preds = %2
  br label %80

17:                                               ; preds = %2
  %18 = getelementptr inbounds %"class.nanogui::Widget", ptr %12, i32 0, i32 8
  %19 = call noundef i64 @_ZNKSt6vectorIPN7nanogui6WidgetESaIS2_EE4sizeEv(ptr noundef nonnull align 8 dereferenceable(24) %18) #8
  %20 = icmp ugt i64 %19, 1
  br i1 %20, label %21, label %28

21:                                               ; preds = %17
  %22 = call ptr @__cxa_allocate_exception(i64 16) #8
  invoke void @_ZNSt13runtime_errorC1EPKc(ptr noundef nonnull align 8 dereferenceable(16) %22, ptr noundef @.str)
          to label %23 unwind label %24

23:                                               ; preds = %21
  call void @__cxa_throw(ptr %22, ptr @_ZTISt13runtime_error, ptr @_ZNSt13runtime_errorD1Ev) #9
  unreachable

24:                                               ; preds = %21
  %25 = landingpad { ptr, i32 }
          cleanup
  %26 = extractvalue { ptr, i32 } %25, 0
  store ptr %26, ptr %5, align 8
  %27 = extractvalue { ptr, i32 } %25, 1
  store i32 %27, ptr %6, align 4
  call void @__cxa_free_exception(ptr %22) #8
  br label %81

28:                                               ; preds = %17
  %29 = getelementptr inbounds %"class.nanogui::Widget", ptr %12, i32 0, i32 8
  %30 = call noundef nonnull align 8 dereferenceable(8) ptr @_ZNSt6vectorIPN7nanogui6WidgetESaIS2_EEixEm(ptr noundef nonnull align 8 dereferenceable(24) %29, i64 noundef 0) #8
  %31 = load ptr, ptr %30, align 8
  store ptr %31, ptr %7, align 8
  %32 = load ptr, ptr %7, align 8
  %33 = load ptr, ptr %4, align 8
  %34 = load ptr, ptr %32, align 8
  %35 = getelementptr inbounds ptr, ptr %34, i64 12
  %36 = load ptr, ptr %35, align 8
  %37 = call i64 %36(ptr noundef nonnull align 8 dereferenceable(140) %32, ptr noundef %33)
  %38 = getelementptr inbounds %"struct.nanogui::Array", ptr %8, i32 0, i32 0
  store i64 %37, ptr %38, align 4
  %39 = call noundef nonnull align 4 dereferenceable(4) ptr @_ZN7nanogui5ArrayIiLm2EE1yILm2ETnNSt9enable_ifIXgeT_Li2EEiE4typeELi0EEERiv(ptr noundef nonnull align 4 dereferenceable(8) %8)
  %40 = load i32, ptr %39, align 4
  %41 = getelementptr inbounds %"class.nanogui::VScrollPanel", ptr %12, i32 0, i32 1
  store i32 %40, ptr %41, align 4
  %42 = getelementptr inbounds %"class.nanogui::VScrollPanel", ptr %12, i32 0, i32 1
  %43 = load i32, ptr %42, align 4
  %44 = getelementptr inbounds %"class.nanogui::Widget", ptr %12, i32 0, i32 6
  %45 = call noundef nonnull align 4 dereferenceable(4) ptr @_ZN7nanogui5ArrayIiLm2EE1yILm2ETnNSt9enable_ifIXgeT_Li2EEiE4typeELi0EEERiv(ptr noundef nonnull align 4 dereferenceable(8) %44)
  %46 = load i32, ptr %45, align 4
  %47 = icmp sgt i32 %43, %46
  br i1 %47, label %48, label %69

48:                                               ; preds = %28
  %49 = load ptr, ptr %7, align 8
  %50 = getelementptr inbounds %"class.nanogui::VScrollPanel", ptr %12, i32 0, i32 2
  %51 = load float, ptr %50, align 8
  %52 = fneg float %51
  %53 = getelementptr inbounds %"class.nanogui::VScrollPanel", ptr %12, i32 0, i32 1
  %54 = load i32, ptr %53, align 4
  %55 = getelementptr inbounds %"class.nanogui::Widget", ptr %12, i32 0, i32 6
  %56 = call noundef nonnull align 4 dereferenceable(4) ptr @_ZN7nanogui5ArrayIiLm2EE1yILm2ETnNSt9enable_ifIXgeT_Li2EEiE4typeELi0EEERiv(ptr noundef nonnull align 4 dereferenceable(8) %55)
  %57 = load i32, ptr %56, align 4
  %58 = sub nsw i32 %54, %57
  %59 = sitofp i32 %58 to float
  %60 = fmul float %52, %59
  %61 = fptosi float %60 to i32
  call void @_ZN7nanogui5ArrayIiLm2EEC2ILm2ETnNSt9enable_ifIXeqT_Li2EEiE4typeELi0EEEii(ptr noundef nonnull align 4 dereferenceable(8) %9, i32 noundef 0, i32 noundef %61)
  call void @_ZN7nanogui6Widget12set_positionERKNS_5ArrayIiLm2EEE(ptr noundef nonnull align 8 dereferenceable(140) %49, ptr noundef nonnull align 4 dereferenceable(8) %9)
  %62 = load ptr, ptr %7, align 8
  %63 = getelementptr inbounds %"class.nanogui::Widget", ptr %12, i32 0, i32 6
  %64 = call noundef nonnull align 4 dereferenceable(4) ptr @_ZN7nanogui5ArrayIiLm2EE1xILm2ETnNSt9enable_ifIXgeT_Li1EEiE4typeELi0EEERiv(ptr noundef nonnull align 4 dereferenceable(8) %63)
  %65 = load i32, ptr %64, align 4
  %66 = sub nsw i32 %65, 12
  %67 = getelementptr inbounds %"class.nanogui::VScrollPanel", ptr %12, i32 0, i32 1
  %68 = load i32, ptr %67, align 4
  call void @_ZN7nanogui5ArrayIiLm2EEC2ILm2ETnNSt9enable_ifIXeqT_Li2EEiE4typeELi0EEEii(ptr noundef nonnull align 4 dereferenceable(8) %10, i32 noundef %66, i32 noundef %68)
  call void @_ZN7nanogui6Widget8set_sizeERKNS_5ArrayIiLm2EEE(ptr noundef nonnull align 8 dereferenceable(140) %62, ptr noundef nonnull align 4 dereferenceable(8) %10)
  br label %74

69:                                               ; preds = %28
  %70 = load ptr, ptr %7, align 8
  call void @_ZN7nanogui5ArrayIiLm2EEC2Ei(ptr noundef nonnull align 4 dereferenceable(8) %11, i32 noundef 0)
  call void @_ZN7nanogui6Widget12set_positionERKNS_5ArrayIiLm2EEE(ptr noundef nonnull align 8 dereferenceable(140) %70, ptr noundef nonnull align 4 dereferenceable(8) %11)
  %71 = load ptr, ptr %7, align 8
  %72 = getelementptr inbounds %"class.nanogui::Widget", ptr %12, i32 0, i32 6
  call void @_ZN7nanogui6Widget8set_sizeERKNS_5ArrayIiLm2EEE(ptr noundef nonnull align 8 dereferenceable(140) %71, ptr noundef nonnull align 4 dereferenceable(8) %72)
  %73 = getelementptr inbounds %"class.nanogui::VScrollPanel", ptr %12, i32 0, i32 2
  store float 0.000000e+00, ptr %73, align 8
  br label %74

74:                                               ; preds = %69, %48
  %75 = load ptr, ptr %7, align 8
  %76 = load ptr, ptr %4, align 8
  %77 = load ptr, ptr %75, align 8
  %78 = getelementptr inbounds ptr, ptr %77, i64 13
  %79 = load ptr, ptr %78, align 8
  call void %79(ptr noundef nonnull align 8 dereferenceable(140) %75, ptr noundef %76)
  br label %80

80:                                               ; preds = %74, %16
  ret void

81:                                               ; preds = %24
  %82 = load ptr, ptr %5, align 8
  %83 = load i32, ptr %6, align 4
  %84 = insertvalue { ptr, i32 } poison, ptr %82, 0
  %85 = insertvalue { ptr, i32 } %84, i32 %83, 1
  resume { ptr, i32 } %85
}