; Function Attrs: mustprogress uwtable
define hidden void @_ZN7nanogui12VScrollPanel14perform_layoutEP10NVGcontext(ptr noundef nonnull align 8 dereferenceable(149) %0, ptr noundef %1) unnamed_addr #0 align 2 personality ptr @__gxx_personality_v0 {
  tail call void @_ZN7nanogui6Widget14perform_layoutEP10NVGcontext(ptr noundef nonnull align 8 dereferenceable(140) %0, ptr noundef %1)
  %3 = getelementptr inbounds i8, ptr %0, i64 64
  %4 = load ptr, ptr %3, align 8
  %5 = getelementptr inbounds i8, ptr %0, i64 72
  %6 = load ptr, ptr %5, align 8
  %7 = icmp eq ptr %4, %6
  br i1 %7, label %50, label %8

8:                                                ; preds = %2
  %9 = ptrtoint ptr %6 to i64
  %10 = ptrtoint ptr %4 to i64
  %11 = sub i64 %9, %10
  %12 = icmp ugt i64 %11, 8
  br i1 %12, label %13, label %18

13:                                               ; preds = %8
  %14 = tail call ptr @__cxa_allocate_exception(i64 16) #10
  invoke void @_ZNSt13runtime_errorC1EPKc(ptr noundef nonnull align 8 dereferenceable(16) %14, ptr noundef nonnull @.str)
          to label %15 unwind label %16

15:                                               ; preds = %13
  tail call void @__cxa_throw(ptr nonnull %14, ptr nonnull @_ZTISt13runtime_error, ptr nonnull @_ZNSt13runtime_errorD1Ev) #11
  unreachable

16:                                               ; preds = %13
  %17 = landingpad { ptr, i32 }
          cleanup
  tail call void @__cxa_free_exception(ptr %14) #10
  resume { ptr, i32 } %17

18:                                               ; preds = %8
  %19 = load ptr, ptr %4, align 8
  %20 = load ptr, ptr %19, align 8
  %21 = getelementptr inbounds i8, ptr %20, i64 96
  %22 = load ptr, ptr %21, align 8
  %23 = tail call i64 %22(ptr noundef nonnull align 8 dereferenceable(140) %19, ptr noundef %1)
  %.sroa.1.0.extract.shift = lshr i64 %23, 32
  %.sroa.1.0.extract.trunc = trunc i64 %.sroa.1.0.extract.shift to i32
  %24 = getelementptr inbounds i8, ptr %0, i64 140
  store i32 %.sroa.1.0.extract.trunc, ptr %24, align 4
  %25 = getelementptr inbounds i8, ptr %0, i64 48
  %26 = getelementptr inbounds i8, ptr %0, i64 52
  %27 = load i32, ptr %26, align 4
  %28 = icmp slt i32 %27, %.sroa.1.0.extract.trunc
  br i1 %28, label %29, label %_ZN7nanogui5ArrayIiLm2EEC2Ei.exit.critedge

29:                                               ; preds = %18
  %30 = getelementptr inbounds i8, ptr %0, i64 144
  %31 = load float, ptr %30, align 8
  %32 = fneg float %31
  %33 = sub nsw i32 %.sroa.1.0.extract.trunc, %27
  %34 = sitofp i32 %33 to float
  %35 = fmul float %34, %32
  %36 = fptosi float %35 to i32
  %37 = getelementptr inbounds i8, ptr %19, i64 40
  %.sroa.216.0.insert.ext = zext i32 %36 to i64
  %.sroa.216.0.insert.shift = shl nuw i64 %.sroa.216.0.insert.ext, 32
  store i64 %.sroa.216.0.insert.shift, ptr %37, align 8
  %38 = load i32, ptr %25, align 8
  %39 = add nsw i32 %38, -12
  %40 = load i32, ptr %24, align 4
  %41 = getelementptr inbounds i8, ptr %19, i64 48
  %.sroa.214.0.insert.ext = zext i32 %40 to i64
  %.sroa.214.0.insert.shift = shl nuw i64 %.sroa.214.0.insert.ext, 32
  %.sroa.013.0.insert.ext = zext i32 %39 to i64
  %.sroa.013.0.insert.insert = or disjoint i64 %.sroa.214.0.insert.shift, %.sroa.013.0.insert.ext
  store i64 %.sroa.013.0.insert.insert, ptr %41, align 8
  br label %46

_ZN7nanogui5ArrayIiLm2EEC2Ei.exit.critedge:       ; preds = %18
  %42 = getelementptr inbounds i8, ptr %19, i64 40
  store i32 0, ptr %42, align 8
  %.sroa_idx12 = getelementptr inbounds i8, ptr %19, i64 44
  store i32 0, ptr %.sroa_idx12, align 4
  %43 = getelementptr inbounds i8, ptr %19, i64 48
  %44 = load i64, ptr %25, align 8
  store i64 %44, ptr %43, align 8
  %45 = getelementptr inbounds i8, ptr %0, i64 144
  store float 0.000000e+00, ptr %45, align 8
  br label %46

46:                                               ; preds = %_ZN7nanogui5ArrayIiLm2EEC2Ei.exit.critedge, %29
  %47 = load ptr, ptr %19, align 8
  %48 = getelementptr inbounds i8, ptr %47, i64 104
  %49 = load ptr, ptr %48, align 8
  tail call void %49(ptr noundef nonnull align 8 dereferenceable(140) %19, ptr noundef %1)
  br label %50

50:                                               ; preds = %2, %46
  ret void
}